; ModuleID = '53/520.c'
source_filename = "53/520.c"
target datalayout = "e-m:e-p270:32:32-p271:32:32-p272:64:64-i64:64-f80:128-n8:16:32:64-S128"
target triple = "x86_64-pc-linux-gnu"

@.str = private unnamed_addr constant [3 x i8] c"%d\00", align 1
@.str.1 = private unnamed_addr constant [4 x i8] c"%d,\00", align 1

; Function Attrs: noinline nounwind uwtable
define dso_local void @main() #0 {
  %1 = alloca [300 x i32], align 16
  %2 = alloca [300 x i32], align 16
  %3 = alloca i32, align 4
  %4 = alloca i32, align 4
  %5 = alloca i32, align 4
  %6 = alloca i32, align 4
  %7 = bitcast [300 x i32]* %2 to i8*
  call void @llvm.memset.p0i8.i64(i8* align 16 %7, i8 0, i64 1200, i1 false)
  store i32 0, i32* %6, align 4
  %8 = call i32 (i8*, ...) @__isoc99_scanf(i8* getelementptr inbounds ([3 x i8], [3 x i8]* @.str, i64 0, i64 0), i32* %4)
  %9 = getelementptr inbounds [300 x i32], [300 x i32]* %1, i64 0, i64 0
  %10 = call i32 (i8*, ...) @__isoc99_scanf(i8* getelementptr inbounds ([3 x i8], [3 x i8]* @.str, i64 0, i64 0), i32* %9)
  %11 = getelementptr inbounds [300 x i32], [300 x i32]* %1, i64 0, i64 0
  %12 = load i32, i32* %11, align 16
  %13 = getelementptr inbounds [300 x i32], [300 x i32]* %2, i64 0, i64 0
  store i32 %12, i32* %13, align 16
  %14 = load i32, i32* %6, align 4
  %15 = add nsw i32 %14, 1
  store i32 %15, i32* %6, align 4
  store i32 1, i32* %3, align 4
  br label %16

16:                                               ; preds = %58, %0
  %17 = load i32, i32* %3, align 4
  %18 = load i32, i32* %4, align 4
  %19 = icmp slt i32 %17, %18
  br i1 %19, label %20, label %61

20:                                               ; preds = %16
  %21 = load i32, i32* %3, align 4
  %22 = sext i32 %21 to i64
  %23 = getelementptr inbounds [300 x i32], [300 x i32]* %1, i64 0, i64 %22
  %24 = call i32 (i8*, ...) @__isoc99_scanf(i8* getelementptr inbounds ([3 x i8], [3 x i8]* @.str, i64 0, i64 0), i32* %23)
  store i32 0, i32* %5, align 4
  br label %25

25:                                               ; preds = %41, %20
  %26 = load i32, i32* %5, align 4
  %27 = load i32, i32* %6, align 4
  %28 = icmp slt i32 %26, %27
  br i1 %28, label %29, label %44

29:                                               ; preds = %25
  %30 = load i32, i32* %3, align 4
  %31 = sext i32 %30 to i64
  %32 = getelementptr inbounds [300 x i32], [300 x i32]* %1, i64 0, i64 %31
  %33 = load i32, i32* %32, align 4
  %34 = load i32, i32* %5, align 4
  %35 = sext i32 %34 to i64
  %36 = getelementptr inbounds [300 x i32], [300 x i32]* %2, i64 0, i64 %35
  %37 = load i32, i32* %36, align 4
  %38 = icmp eq i32 %33, %37
  br i1 %38, label %39, label %40

39:                                               ; preds = %29
  br label %44

40:                                               ; preds = %29
  br label %41

41:                                               ; preds = %40
  %42 = load i32, i32* %5, align 4
  %43 = add nsw i32 %42, 1
  store i32 %43, i32* %5, align 4
  br label %25

44:                                               ; preds = %39, %25
  %45 = load i32, i32* %5, align 4
  %46 = load i32, i32* %6, align 4
  %47 = icmp eq i32 %45, %46
  br i1 %47, label %48, label %57

48:                                               ; preds = %44
  %49 = load i32, i32* %3, align 4
  %50 = sext i32 %49 to i64
  %51 = getelementptr inbounds [300 x i32], [300 x i32]* %1, i64 0, i64 %50
  %52 = load i32, i32* %51, align 4
  %53 = load i32, i32* %6, align 4
  %54 = add nsw i32 %53, 1
  store i32 %54, i32* %6, align 4
  %55 = sext i32 %53 to i64
  %56 = getelementptr inbounds [300 x i32], [300 x i32]* %2, i64 0, i64 %55
  store i32 %52, i32* %56, align 4
  br label %57

57:                                               ; preds = %48, %44
  br label %58

58:                                               ; preds = %57
  %59 = load i32, i32* %3, align 4
  %60 = add nsw i32 %59, 1
  store i32 %60, i32* %3, align 4
  br label %16

61:                                               ; preds = %16
  %62 = load i32, i32* %6, align 4
  %63 = add nsw i32 %62, -1
  store i32 %63, i32* %6, align 4
  store i32 0, i32* %3, align 4
  br label %64

64:                                               ; preds = %74, %61
  %65 = load i32, i32* %3, align 4
  %66 = load i32, i32* %6, align 4
  %67 = icmp slt i32 %65, %66
  br i1 %67, label %68, label %77

68:                                               ; preds = %64
  %69 = load i32, i32* %3, align 4
  %70 = sext i32 %69 to i64
  %71 = getelementptr inbounds [300 x i32], [300 x i32]* %2, i64 0, i64 %70
  %72 = load i32, i32* %71, align 4
  %73 = call i32 (i8*, ...) @printf(i8* getelementptr inbounds ([4 x i8], [4 x i8]* @.str.1, i64 0, i64 0), i32 %72)
  br label %74

74:                                               ; preds = %68
  %75 = load i32, i32* %3, align 4
  %76 = add nsw i32 %75, 1
  store i32 %76, i32* %3, align 4
  br label %64

77:                                               ; preds = %64
  %78 = load i32, i32* %6, align 4
  %79 = sext i32 %78 to i64
  %80 = getelementptr inbounds [300 x i32], [300 x i32]* %2, i64 0, i64 %79
  %81 = load i32, i32* %80, align 4
  %82 = call i32 (i8*, ...) @printf(i8* getelementptr inbounds ([3 x i8], [3 x i8]* @.str, i64 0, i64 0), i32 %81)
  ret void
}

; Function Attrs: argmemonly nounwind willreturn
declare void @llvm.memset.p0i8.i64(i8* nocapture writeonly, i8, i64, i1 immarg) #1

declare dso_local i32 @__isoc99_scanf(i8*, ...) #2

declare dso_local i32 @printf(i8*, ...) #2


!llvm.module.flags = !{!0}
!llvm.ident = !{!1}

!0 = !{i32 1, !"wchar_size", i32 4}
!1 = !{!"clang version 10.0.0-4ubuntu1 "}
